; ModuleID = '55/1134.c'
source_filename = "55/1134.c"
target datalayout = "e-m:e-p270:32:32-p271:32:32-p272:64:64-i64:64-f80:128-n8:16:32:64-S128"
target triple = "x86_64-pc-linux-gnu"

@.str = private unnamed_addr constant [3 x i8] c"%d\00", align 1
@.str.1 = private unnamed_addr constant [3 x i8] c"%c\00", align 1

; Function Attrs: noinline nounwind uwtable
define dso_local i32 @main() #0 {
  %1 = alloca i32, align 4
  %2 = alloca [100 x i32], align 16
  %3 = alloca [100 x i32], align 16
  %4 = alloca i32, align 4
  %5 = alloca i32, align 4
  %6 = alloca i32, align 4
  %7 = alloca i32, align 4
  %8 = alloca i32, align 4
  %9 = alloca i32, align 4
  %10 = alloca i8, align 1
  store i32 0, i32* %1, align 4
  store i32 0, i32* %6, align 4
  %11 = call i32 (i8*, ...) @__isoc99_scanf(i8* getelementptr inbounds ([3 x i8], [3 x i8]* @.str, i64 0, i64 0), i32* %4)
  %12 = call i32 @getchar()
  store i32 0, i32* %9, align 4
  br label %13

13:                                               ; preds = %71, %0
  %14 = load i32, i32* %9, align 4
  %15 = icmp slt i32 %14, 100
  br i1 %15, label %16, label %74

16:                                               ; preds = %13
  %17 = call i32 (i8*, ...) @__isoc99_scanf(i8* getelementptr inbounds ([3 x i8], [3 x i8]* @.str.1, i64 0, i64 0), i8* %10)
  %18 = load i8, i8* %10, align 1
  %19 = sext i8 %18 to i32
  %20 = icmp sle i32 %19, 57
  br i1 %20, label %21, label %32

21:                                               ; preds = %16
  %22 = load i8, i8* %10, align 1
  %23 = sext i8 %22 to i32
  %24 = icmp sge i32 %23, 48
  br i1 %24, label %25, label %32

25:                                               ; preds = %21
  %26 = load i8, i8* %10, align 1
  %27 = sext i8 %26 to i32
  %28 = sub nsw i32 %27, 48
  %29 = load i32, i32* %9, align 4
  %30 = sext i32 %29 to i64
  %31 = getelementptr inbounds [100 x i32], [100 x i32]* %2, i64 0, i64 %30
  store i32 %28, i32* %31, align 4
  br label %32

32:                                               ; preds = %25, %21, %16
  %33 = load i8, i8* %10, align 1
  %34 = sext i8 %33 to i32
  %35 = icmp sle i32 %34, 122
  br i1 %35, label %36, label %48

36:                                               ; preds = %32
  %37 = load i8, i8* %10, align 1
  %38 = sext i8 %37 to i32
  %39 = icmp sge i32 %38, 97
  br i1 %39, label %40, label %48

40:                                               ; preds = %36
  %41 = load i8, i8* %10, align 1
  %42 = sext i8 %41 to i32
  %43 = sub nsw i32 %42, 97
  %44 = add nsw i32 %43, 10
  %45 = load i32, i32* %9, align 4
  %46 = sext i32 %45 to i64
  %47 = getelementptr inbounds [100 x i32], [100 x i32]* %2, i64 0, i64 %46
  store i32 %44, i32* %47, align 4
  br label %48

48:                                               ; preds = %40, %36, %32
  %49 = load i8, i8* %10, align 1
  %50 = sext i8 %49 to i32
  %51 = icmp sle i32 %50, 90
  br i1 %51, label %52, label %64

52:                                               ; preds = %48
  %53 = load i8, i8* %10, align 1
  %54 = sext i8 %53 to i32
  %55 = icmp sge i32 %54, 65
  br i1 %55, label %56, label %64

56:                                               ; preds = %52
  %57 = load i8, i8* %10, align 1
  %58 = sext i8 %57 to i32
  %59 = sub nsw i32 %58, 65
  %60 = add nsw i32 %59, 10
  %61 = load i32, i32* %9, align 4
  %62 = sext i32 %61 to i64
  %63 = getelementptr inbounds [100 x i32], [100 x i32]* %2, i64 0, i64 %62
  store i32 %60, i32* %63, align 4
  br label %64

64:                                               ; preds = %56, %52, %48
  %65 = load i8, i8* %10, align 1
  %66 = sext i8 %65 to i32
  %67 = icmp eq i32 %66, 32
  br i1 %67, label %68, label %70

68:                                               ; preds = %64
  %69 = load i32, i32* %9, align 4
  store i32 %69, i32* %7, align 4
  br label %74

70:                                               ; preds = %64
  br label %71

71:                                               ; preds = %70
  %72 = load i32, i32* %9, align 4
  %73 = add nsw i32 %72, 1
  store i32 %73, i32* %9, align 4
  br label %13

74:                                               ; preds = %68, %13
  %75 = call i32 (i8*, ...) @__isoc99_scanf(i8* getelementptr inbounds ([3 x i8], [3 x i8]* @.str, i64 0, i64 0), i32* %5)
  store i32 0, i32* %9, align 4
  br label %76

76:                                               ; preds = %99, %74
  %77 = load i32, i32* %9, align 4
  %78 = load i32, i32* %7, align 4
  %79 = icmp slt i32 %77, %78
  br i1 %79, label %80, label %102

80:                                               ; preds = %76
  %81 = load i32, i32* %9, align 4
  %82 = sext i32 %81 to i64
  %83 = getelementptr inbounds [100 x i32], [100 x i32]* %2, i64 0, i64 %82
  %84 = load i32, i32* %83, align 4
  %85 = sitofp i32 %84 to double
  %86 = load i32, i32* %4, align 4
  %87 = sitofp i32 %86 to double
  %88 = load i32, i32* %7, align 4
  %89 = load i32, i32* %9, align 4
  %90 = sub nsw i32 %88, %89
  %91 = sub nsw i32 %90, 1
  %92 = sitofp i32 %91 to double
  %93 = call double @pow(double %87, double %92) #3
  %94 = fmul double %85, %93
  %95 = load i32, i32* %6, align 4
  %96 = sitofp i32 %95 to double
  %97 = fadd double %96, %94
  %98 = fptosi double %97 to i32
  store i32 %98, i32* %6, align 4
  br label %99

99:                                               ; preds = %80
  %100 = load i32, i32* %9, align 4
  %101 = add nsw i32 %100, 1
  store i32 %101, i32* %9, align 4
  br label %76

102:                                              ; preds = %76
  store i32 0, i32* %9, align 4
  br label %103

103:                                              ; preds = %127, %102
  %104 = load i32, i32* %9, align 4
  %105 = icmp slt i32 %104, 100
  br i1 %105, label %106, label %130

106:                                              ; preds = %103
  %107 = load i32, i32* %6, align 4
  %108 = load i32, i32* %5, align 4
  %109 = srem i32 %107, %108
  %110 = load i32, i32* %9, align 4
  %111 = sext i32 %110 to i64
  %112 = getelementptr inbounds [100 x i32], [100 x i32]* %3, i64 0, i64 %111
  store i32 %109, i32* %112, align 4
  %113 = load i32, i32* %6, align 4
  %114 = load i32, i32* %9, align 4
  %115 = sext i32 %114 to i64
  %116 = getelementptr inbounds [100 x i32], [100 x i32]* %3, i64 0, i64 %115
  %117 = load i32, i32* %116, align 4
  %118 = sub nsw i32 %113, %117
  %119 = load i32, i32* %5, align 4
  %120 = sdiv i32 %118, %119
  store i32 %120, i32* %6, align 4
  %121 = load i32, i32* %6, align 4
  %122 = icmp eq i32 %121, 0
  br i1 %122, label %123, label %126

123:                                              ; preds = %106
  %124 = load i32, i32* %9, align 4
  %125 = add nsw i32 %124, 1
  store i32 %125, i32* %8, align 4
  br label %130

126:                                              ; preds = %106
  br label %127

127:                                              ; preds = %126
  %128 = load i32, i32* %9, align 4
  %129 = add nsw i32 %128, 1
  store i32 %129, i32* %9, align 4
  br label %103

130:                                              ; preds = %123, %103
  %131 = load i32, i32* %8, align 4
  %132 = sub nsw i32 %131, 1
  store i32 %132, i32* %9, align 4
  br label %133

133:                                              ; preds = %173, %130
  %134 = load i32, i32* %9, align 4
  %135 = icmp sge i32 %134, 0
  br i1 %135, label %136, label %176

136:                                              ; preds = %133
  %137 = load i32, i32* %9, align 4
  %138 = sext i32 %137 to i64
  %139 = getelementptr inbounds [100 x i32], [100 x i32]* %3, i64 0, i64 %138
  %140 = load i32, i32* %139, align 4
  %141 = icmp sle i32 %140, 9
  br i1 %141, label %142, label %155

142:                                              ; preds = %136
  %143 = load i32, i32* %9, align 4
  %144 = sext i32 %143 to i64
  %145 = getelementptr inbounds [100 x i32], [100 x i32]* %3, i64 0, i64 %144
  %146 = load i32, i32* %145, align 4
  %147 = icmp sge i32 %146, 0
  br i1 %147, label %148, label %155

148:                                              ; preds = %142
  %149 = load i32, i32* %9, align 4
  %150 = sext i32 %149 to i64
  %151 = getelementptr inbounds [100 x i32], [100 x i32]* %3, i64 0, i64 %150
  %152 = load i32, i32* %151, align 4
  %153 = add nsw i32 %152, 48
  %154 = trunc i32 %153 to i8
  store i8 %154, i8* %10, align 1
  br label %155

155:                                              ; preds = %148, %142, %136
  %156 = load i32, i32* %9, align 4
  %157 = sext i32 %156 to i64
  %158 = getelementptr inbounds [100 x i32], [100 x i32]* %3, i64 0, i64 %157
  %159 = load i32, i32* %158, align 4
  %160 = icmp sgt i32 %159, 9
  br i1 %160, label %161, label %169

161:                                              ; preds = %155
  %162 = load i32, i32* %9, align 4
  %163 = sext i32 %162 to i64
  %164 = getelementptr inbounds [100 x i32], [100 x i32]* %3, i64 0, i64 %163
  %165 = load i32, i32* %164, align 4
  %166 = sub nsw i32 %165, 10
  %167 = add nsw i32 %166, 65
  %168 = trunc i32 %167 to i8
  store i8 %168, i8* %10, align 1
  br label %169

169:                                              ; preds = %161, %155
  %170 = load i8, i8* %10, align 1
  %171 = sext i8 %170 to i32
  %172 = call i32 (i8*, ...) @printf(i8* getelementptr inbounds ([3 x i8], [3 x i8]* @.str.1, i64 0, i64 0), i32 %171)
  br label %173

173:                                              ; preds = %169
  %174 = load i32, i32* %9, align 4
  %175 = add nsw i32 %174, -1
  store i32 %175, i32* %9, align 4
  br label %133

176:                                              ; preds = %133
  ret i32 0
}

declare dso_local i32 @__isoc99_scanf(i8*, ...) #1

declare dso_local i32 @getchar() #1

; Function Attrs: nounwind
declare dso_local double @pow(double, double) #2

declare dso_local i32 @printf(i8*, ...) #1


!llvm.module.flags = !{!0}
!llvm.ident = !{!1}

!0 = !{i32 1, !"wchar_size", i32 4}
!1 = !{!"clang version 10.0.0-4ubuntu1 "}
